(lp0
(S'deps'
p1
ccopy_reg
_reconstructor
p2
(cino.utils
SpaceList
p3
c__builtin__
list
p4
(lp5
S'.build/uno/src/dependencies.d'
p6
aS'.build/uno/arduino/dependencies.d'
p7
aS'.build/uno/Servo/dependencies.d'
p8
aS'.build/uno/EasyTransferI2C/dependencies.d'
p9
aS'.build/uno/Wire/dependencies.d'
p10
aS'.build/uno/ShotPour/dependencies.d'
p11
atp12
Rp13
tp14
a(S'stty'
p15
S'/bin/stty'
p16
tp17
a(S'version.txt'
p18
S'/Applications/Arduino.app/Contents/Resources/Java/lib/version.txt'
p19
tp20
a(S'used_libs'
p21
(lp22
S'lib/EasyTransferI2C'
p23
aS'lib/ShotPour'
p24
aS'/Applications/Arduino.app/Contents/Resources/Java/libraries/Wire'
p25
aS'/Applications/Arduino.app/Contents/Resources/Java/libraries/Servo'
p26
aS'/Applications/Arduino.app/Contents/Resources/Java/hardware/arduino/cores/arduino'
p27
atp28
a(S'cc'
p29
S'/Applications/Arduino.app/Contents/Resources/Java/hardware/tools/avr/bin/avr-gcc'
p30
tp31
a(S'arduino_libraries_dir'
p32
S'/Applications/Arduino.app/Contents/Resources/Java/libraries'
p33
tp34
a(S'arduino_core_dir'
p35
g27
tp36
a(S'boards.txt'
p37
S'/Applications/Arduino.app/Contents/Resources/Java/hardware/arduino/boards.txt'
p38
tp39
a(S'cxxflags'
p40
g2
(g3
g4
(lp41
S'-fno-exceptions'
p42
atp43
Rp44
tp45
a(S'arduino_variants_dir'
p46
S'/Applications/Arduino.app/Contents/Resources/Java/hardware/arduino/variants'
p47
tp48
a(S'avrdude'
p49
S'/Applications/Arduino.app/Contents/Resources/Java/hardware/tools/avr/bin/avrdude'
p50
tp51
a(S'avrdude.conf'
p52
S'/Applications/Arduino.app/Contents/Resources/Java/hardware/tools/avr/etc/avrdude.conf'
p53
tp54
a(S'names'
p55
(dp56
S'cpp'
p57
S'%s.cpp'
p58
sS'obj'
p59
S'%s.o'
p60
sS'lib'
p61
S'lib%s.a'
p62
sS'deps'
p63
S'%s.d'
p64
stp65
a(S'cflags'
p66
g2
(g3
g4
(lp67
S'-mmcu=atmega328p'
p68
aS'-ffunction-sections'
p69
aS'-fdata-sections'
p70
aS'-g'
p71
aS'-Os'
p72
aS'-w'
p73
aS'-DF_CPU=16000000L'
p74
aS'-DARDUINO=100'
p75
aS'-I/Applications/Arduino.app/Contents/Resources/Java/hardware/arduino/cores/arduino'
p76
aS'-I/Applications/Arduino.app/Contents/Resources/Java/hardware/arduino/variants/standard'
p77
aS'-Ilib/EasyTransferI2C'
p78
aS'-Ilib/EasyTransferI2C/Examples'
p79
aS'-Ilib/EasyTransferI2C/Examples/EasyTransfer_RX_Example'
p80
aS'-Ilib/EasyTransferI2C/Examples/EasyTransfer_TX_Example'
p81
aS'-Ilib/ShotPour'
p82
aS'-I/Applications/Arduino.app/Contents/Resources/Java/libraries/Wire'
p83
aS'-I/Applications/Arduino.app/Contents/Resources/Java/libraries/Wire/utility'
p84
aS'-I/Applications/Arduino.app/Contents/Resources/Java/libraries/Servo'
p85
aS'-I/Applications/Arduino.app/Contents/Resources/Java/hardware/arduino/cores/arduino'
p86
atp87
Rp88
tp89
a(S'elfflags'
p90
g2
(g3
g4
(lp91
g72
aS'-Wl,--gc-sections'
p92
ag68
atp93
Rp94
tp95
a(S'arduino_lib_version'
p96
g2
(cino.environment
Version
p97
c__builtin__
tuple
p98
(I1
I0
tp99
tp100
Rp101
tp102
a(S'objcopy'
p103
S'/Applications/Arduino.app/Contents/Resources/Java/hardware/tools/avr/bin/avr-objcopy'
p104
tp105
a(S'ar'
p106
S'/Applications/Arduino.app/Contents/Resources/Java/hardware/tools/avr/bin/avr-ar'
p107
tp108
a(S'board_models'
p109
cino.environment
BoardModels
p110
((lp111
(lp112
S'uno'
p113
a(dp114
S'bootloader'
p115
(dp116
S'extended_fuses'
p117
S'0x05'
p118
sS'high_fuses'
p119
S'0xde'
p120
sS'low_fuses'
p121
S'0xff'
p122
sS'lock_bits'
p123
S'0x0F'
p124
sS'file'
p125
S'optiboot_atmega328.hex'
p126
sS'path'
p127
S'optiboot'
p128
sS'unlock_bits'
p129
S'0x3F'
p130
ssS'build'
p131
(dp132
S'core'
p133
S'arduino'
p134
sS'mcu'
p135
S'atmega328p'
p136
sS'f_cpu'
p137
S'16000000L'
p138
sS'variant'
p139
S'standard'
p140
ssS'name'
p141
S'Arduino Uno'
p142
sS'upload'
p143
(dp144
S'speed'
p145
S'115200'
p146
sS'maximum_size'
p147
S'32256'
p148
sS'protocol'
p149
S'arduino'
p150
ssaa(lp151
S'atmega328'
p152
a(dp153
S'bootloader'
p154
(dp155
S'extended_fuses'
p156
S'0x05'
p157
sS'high_fuses'
p158
S'0xDA'
p159
sS'low_fuses'
p160
S'0xFF'
p161
sS'lock_bits'
p162
S'0x0F'
p163
sS'file'
p164
S'ATmegaBOOT_168_atmega328.hex'
p165
sS'path'
p166
S'atmega'
p167
sS'unlock_bits'
p168
S'0x3F'
p169
ssS'build'
p170
(dp171
S'core'
p172
S'arduino'
p173
sS'mcu'
p174
S'atmega328p'
p175
sS'f_cpu'
p176
S'16000000L'
p177
sS'variant'
p178
S'standard'
p179
ssS'name'
p180
S'Arduino Duemilanove w/ ATmega328'
p181
sS'upload'
p182
(dp183
S'speed'
p184
S'57600'
p185
sS'maximum_size'
p186
S'30720'
p187
sS'protocol'
p188
S'arduino'
p189
ssaa(lp190
S'diecimila'
p191
a(dp192
S'bootloader'
p193
(dp194
S'extended_fuses'
p195
S'0x00'
p196
sS'high_fuses'
p197
S'0xdd'
p198
sS'low_fuses'
p199
S'0xff'
p200
sS'lock_bits'
p201
S'0x0F'
p202
sS'file'
p203
S'ATmegaBOOT_168_diecimila.hex'
p204
sS'path'
p205
S'atmega'
p206
sS'unlock_bits'
p207
S'0x3F'
p208
ssS'build'
p209
(dp210
S'core'
p211
S'arduino'
p212
sS'mcu'
p213
S'atmega168'
p214
sS'f_cpu'
p215
S'16000000L'
p216
sS'variant'
p217
S'standard'
p218
ssS'name'
p219
S'Arduino Diecimila or Duemilanove w/ ATmega168'
p220
sS'upload'
p221
(dp222
S'speed'
p223
S'19200'
p224
sS'maximum_size'
p225
S'14336'
p226
sS'protocol'
p227
S'arduino'
p228
ssaa(lp229
S'nano328'
p230
a(dp231
S'bootloader'
p232
(dp233
S'extended_fuses'
p234
S'0x05'
p235
sS'high_fuses'
p236
S'0xDA'
p237
sS'low_fuses'
p238
S'0xFF'
p239
sS'lock_bits'
p240
S'0x0F'
p241
sS'file'
p242
S'ATmegaBOOT_168_atmega328.hex'
p243
sS'path'
p244
S'atmega'
p245
sS'unlock_bits'
p246
S'0x3F'
p247
ssS'build'
p248
(dp249
S'core'
p250
S'arduino'
p251
sS'mcu'
p252
S'atmega328p'
p253
sS'f_cpu'
p254
S'16000000L'
p255
sS'variant'
p256
S'eightanaloginputs'
p257
ssS'name'
p258
S'Arduino Nano w/ ATmega328'
p259
sS'upload'
p260
(dp261
S'speed'
p262
S'57600'
p263
sS'maximum_size'
p264
S'30720'
p265
sS'protocol'
p266
S'arduino'
p267
ssaa(lp268
S'nano'
p269
a(dp270
S'bootloader'
p271
(dp272
S'extended_fuses'
p273
S'0x00'
p274
sS'high_fuses'
p275
S'0xdd'
p276
sS'low_fuses'
p277
S'0xff'
p278
sS'lock_bits'
p279
S'0x0F'
p280
sS'file'
p281
S'ATmegaBOOT_168_diecimila.hex'
p282
sS'path'
p283
S'atmega'
p284
sS'unlock_bits'
p285
S'0x3F'
p286
ssS'build'
p287
(dp288
S'core'
p289
S'arduino'
p290
sS'mcu'
p291
S'atmega168'
p292
sS'f_cpu'
p293
S'16000000L'
p294
sS'variant'
p295
S'eightanaloginputs'
p296
ssS'name'
p297
S'Arduino Nano w/ ATmega168'
p298
sS'upload'
p299
(dp300
S'speed'
p301
S'19200'
p302
sS'maximum_size'
p303
S'14336'
p304
sS'protocol'
p305
S'arduino'
p306
ssaa(lp307
S'mega2560'
p308
a(dp309
S'bootloader'
p310
(dp311
S'extended_fuses'
p312
S'0xFD'
p313
sS'high_fuses'
p314
S'0xD8'
p315
sS'low_fuses'
p316
S'0xFF'
p317
sS'lock_bits'
p318
S'0x0F'
p319
sS'file'
p320
S'stk500boot_v2_mega2560.hex'
p321
sS'path'
p322
S'stk500v2'
p323
sS'unlock_bits'
p324
S'0x3F'
p325
ssS'build'
p326
(dp327
S'core'
p328
S'arduino'
p329
sS'mcu'
p330
S'atmega2560'
p331
sS'f_cpu'
p332
S'16000000L'
p333
sS'variant'
p334
S'mega'
p335
ssS'name'
p336
S'Arduino Mega 2560 or Mega ADK'
p337
sS'upload'
p338
(dp339
S'speed'
p340
S'115200'
p341
sS'maximum_size'
p342
S'258048'
p343
sS'protocol'
p344
S'wiring'
p345
ssaa(lp346
S'mega'
p347
a(dp348
S'bootloader'
p349
(dp350
S'extended_fuses'
p351
S'0xF5'
p352
sS'high_fuses'
p353
S'0xDA'
p354
sS'low_fuses'
p355
S'0xFF'
p356
sS'lock_bits'
p357
S'0x0F'
p358
sS'file'
p359
S'ATmegaBOOT_168_atmega1280.hex'
p360
sS'path'
p361
S'atmega'
p362
sS'unlock_bits'
p363
S'0x3F'
p364
ssS'build'
p365
(dp366
S'core'
p367
S'arduino'
p368
sS'mcu'
p369
S'atmega1280'
p370
sS'f_cpu'
p371
S'16000000L'
p372
sS'variant'
p373
S'mega'
p374
ssS'name'
p375
S'Arduino Mega (ATmega1280)'
p376
sS'upload'
p377
(dp378
S'speed'
p379
S'57600'
p380
sS'maximum_size'
p381
S'126976'
p382
sS'protocol'
p383
S'arduino'
p384
ssaa(lp385
S'leonardo'
p386
a(dp387
S'bootloader'
p388
(dp389
S'extended_fuses'
p390
S'0xcb'
p391
sS'high_fuses'
p392
S'0xd8'
p393
sS'low_fuses'
p394
S'0xff'
p395
sS'lock_bits'
p396
S'0x2F'
p397
sS'file'
p398
S'Caterina-Leonardo.hex'
p399
sS'path'
p400
S'caterina'
p401
sS'unlock_bits'
p402
S'0x3F'
p403
ssS'build'
p404
(dp405
S'core'
p406
S'arduino'
p407
sS'f_cpu'
p408
S'16000000L'
p409
sS'vid'
p410
S'0x2341'
p411
sS'pid'
p412
S'0x8036'
p413
sS'variant'
p414
S'leonardo'
p415
sS'mcu'
p416
S'atmega32u4'
p417
ssS'name'
p418
S'Arduino Leonardo'
p419
sS'upload'
p420
(dp421
S'speed'
p422
S'57600'
p423
sS'maximum_size'
p424
S'28672'
p425
sS'protocol'
p426
S'avr109'
p427
sS'disable_flushing'
p428
S'true'
p429
ssaa(lp430
S'esplora'
p431
a(dp432
S'bootloader'
p433
(dp434
S'extended_fuses'
p435
S'0xcb'
p436
sS'high_fuses'
p437
S'0xd8'
p438
sS'low_fuses'
p439
S'0xff'
p440
sS'lock_bits'
p441
S'0x2F'
p442
sS'file'
p443
S'Caterina-Esplora.hex'
p444
sS'path'
p445
S'caterina'
p446
sS'unlock_bits'
p447
S'0x3F'
p448
ssS'build'
p449
(dp450
S'core'
p451
S'arduino'
p452
sS'f_cpu'
p453
S'16000000L'
p454
sS'vid'
p455
S'0x2341'
p456
sS'pid'
p457
S'0x803C'
p458
sS'variant'
p459
S'leonardo'
p460
sS'mcu'
p461
S'atmega32u4'
p462
ssS'name'
p463
S'Arduino Esplora'
p464
sS'upload'
p465
(dp466
S'speed'
p467
S'57600'
p468
sS'maximum_size'
p469
S'28672'
p470
sS'protocol'
p471
S'avr109'
p472
sS'disable_flushing'
p473
S'true'
p474
ssaa(lp475
S'micro'
p476
a(dp477
S'bootloader'
p478
(dp479
S'extended_fuses'
p480
S'0xcb'
p481
sS'high_fuses'
p482
S'0xd8'
p483
sS'low_fuses'
p484
S'0xff'
p485
sS'lock_bits'
p486
S'0x2F'
p487
sS'file'
p488
S'Caterina-Micro.hex'
p489
sS'path'
p490
S'caterina'
p491
sS'unlock_bits'
p492
S'0x3F'
p493
ssS'build'
p494
(dp495
S'core'
p496
S'arduino'
p497
sS'f_cpu'
p498
S'16000000L'
p499
sS'vid'
p500
S'0x2341'
p501
sS'pid'
p502
S'0x8037'
p503
sS'variant'
p504
S'micro'
p505
sS'mcu'
p506
S'atmega32u4'
p507
ssS'name'
p508
S'Arduino Micro'
p509
sS'upload'
p510
(dp511
S'speed'
p512
S'57600'
p513
sS'maximum_size'
p514
S'28672'
p515
sS'protocol'
p516
S'avr109'
p517
sS'disable_flushing'
p518
S'true'
p519
ssaa(lp520
S'mini328'
p521
a(dp522
S'bootloader'
p523
(dp524
S'extended_fuses'
p525
S'0x05'
p526
sS'high_fuses'
p527
S'0xd8'
p528
sS'low_fuses'
p529
S'0xff'
p530
sS'lock_bits'
p531
S'0x0F'
p532
sS'file'
p533
S'optiboot_atmega328-Mini.hex'
p534
sS'path'
p535
S'optiboot'
p536
sS'unlock_bits'
p537
S'0x3F'
p538
ssS'build'
p539
(dp540
S'core'
p541
S'arduino'
p542
sS'mcu'
p543
S'atmega328p'
p544
sS'f_cpu'
p545
S'16000000L'
p546
sS'variant'
p547
S'eightanaloginputs'
p548
ssS'name'
p549
S'Arduino Mini w/ ATmega328'
p550
sS'upload'
p551
(dp552
S'speed'
p553
S'115200'
p554
sS'maximum_size'
p555
S'28672'
p556
sS'protocol'
p557
S'arduino'
p558
ssaa(lp559
S'mini'
p560
a(dp561
S'bootloader'
p562
(dp563
S'extended_fuses'
p564
S'0x00'
p565
sS'high_fuses'
p566
S'0xdd'
p567
sS'low_fuses'
p568
S'0xff'
p569
sS'lock_bits'
p570
S'0x0F'
p571
sS'file'
p572
S'ATmegaBOOT_168_ng.hex'
p573
sS'path'
p574
S'atmega'
p575
sS'unlock_bits'
p576
S'0x3F'
p577
ssS'build'
p578
(dp579
S'core'
p580
S'arduino'
p581
sS'mcu'
p582
S'atmega168'
p583
sS'f_cpu'
p584
S'16000000L'
p585
sS'variant'
p586
S'eightanaloginputs'
p587
ssS'name'
p588
S'Arduino Mini w/ ATmega168'
p589
sS'upload'
p590
(dp591
S'speed'
p592
S'19200'
p593
sS'maximum_size'
p594
S'14336'
p595
sS'protocol'
p596
S'arduino'
p597
ssaa(lp598
S'ethernet'
p599
a(dp600
S'bootloader'
p601
(dp602
S'extended_fuses'
p603
S'0x05'
p604
sS'high_fuses'
p605
S'0xde'
p606
sS'low_fuses'
p607
S'0xff'
p608
sS'lock_bits'
p609
S'0x0F'
p610
sS'file'
p611
S'optiboot_atmega328.hex'
p612
sS'path'
p613
S'optiboot'
p614
sS'unlock_bits'
p615
S'0x3F'
p616
ssS'build'
p617
(dp618
S'f_cpu'
p619
S'16000000L'
p620
sS'mcu'
p621
S'atmega328p'
p622
sS'variant'
p623
S'standard'
p624
sS'core'
p625
S'arduino'
p626
ssS'name'
p627
S'Arduino Ethernet'
p628
sS'upload'
p629
(dp630
S'speed'
p631
S'115200'
p632
sS'maximum_size'
p633
S'32256'
p634
sS'protocol'
p635
S'arduino'
p636
ssaa(lp637
S'fio'
p638
a(dp639
S'bootloader'
p640
(dp641
S'extended_fuses'
p642
S'0x05'
p643
sS'high_fuses'
p644
S'0xDA'
p645
sS'low_fuses'
p646
S'0xFF'
p647
sS'lock_bits'
p648
S'0x0F'
p649
sS'file'
p650
S'ATmegaBOOT_168_atmega328_pro_8MHz.hex'
p651
sS'path'
p652
S'arduino:atmega'
p653
sS'unlock_bits'
p654
S'0x3F'
p655
ssS'build'
p656
(dp657
S'core'
p658
S'arduino'
p659
sS'mcu'
p660
S'atmega328p'
p661
sS'f_cpu'
p662
S'8000000L'
p663
sS'variant'
p664
S'eightanaloginputs'
p665
ssS'name'
p666
S'Arduino Fio'
p667
sS'upload'
p668
(dp669
S'speed'
p670
S'57600'
p671
sS'maximum_size'
p672
S'30720'
p673
sS'protocol'
p674
S'arduino'
p675
ssaa(lp676
S'bt328'
p677
a(dp678
S'bootloader'
p679
(dp680
S'extended_fuses'
p681
S'0x05'
p682
sS'high_fuses'
p683
S'0xd8'
p684
sS'low_fuses'
p685
S'0xff'
p686
sS'lock_bits'
p687
S'0x0F'
p688
sS'file'
p689
S'ATmegaBOOT_168_atmega328_bt.hex'
p690
sS'path'
p691
S'bt'
p692
sS'unlock_bits'
p693
S'0x3F'
p694
ssS'build'
p695
(dp696
S'core'
p697
S'arduino'
p698
sS'mcu'
p699
S'atmega328p'
p700
sS'f_cpu'
p701
S'16000000L'
p702
sS'variant'
p703
S'eightanaloginputs'
p704
ssS'name'
p705
S'Arduino BT w/ ATmega328'
p706
sS'upload'
p707
(dp708
S'speed'
p709
S'19200'
p710
sS'maximum_size'
p711
S'28672'
p712
sS'protocol'
p713
S'arduino'
p714
sS'disable_flushing'
p715
S'true'
p716
ssaa(lp717
S'bt'
p718
a(dp719
S'bootloader'
p720
(dp721
S'extended_fuses'
p722
S'0x00'
p723
sS'high_fuses'
p724
S'0xdd'
p725
sS'low_fuses'
p726
S'0xff'
p727
sS'lock_bits'
p728
S'0x0F'
p729
sS'file'
p730
S'ATmegaBOOT_168.hex'
p731
sS'path'
p732
S'bt'
p733
sS'unlock_bits'
p734
S'0x3F'
p735
ssS'build'
p736
(dp737
S'core'
p738
S'arduino'
p739
sS'mcu'
p740
S'atmega168'
p741
sS'f_cpu'
p742
S'16000000L'
p743
sS'variant'
p744
S'eightanaloginputs'
p745
ssS'name'
p746
S'Arduino BT w/ ATmega168'
p747
sS'upload'
p748
(dp749
S'speed'
p750
S'19200'
p751
sS'maximum_size'
p752
S'14336'
p753
sS'protocol'
p754
S'arduino'
p755
sS'disable_flushing'
p756
S'true'
p757
ssaa(lp758
S'LilyPadUSB'
p759
a(dp760
S'bootloader'
p761
(dp762
S'extended_fuses'
p763
S'0xce'
p764
sS'high_fuses'
p765
S'0xd8'
p766
sS'low_fuses'
p767
S'0xff'
p768
sS'lock_bits'
p769
S'0x2F'
p770
sS'file'
p771
S'Caterina-LilyPadUSB.hex'
p772
sS'path'
p773
S'caterina-LilyPadUSB'
p774
sS'unlock_bits'
p775
S'0x3F'
p776
ssS'build'
p777
(dp778
S'core'
p779
S'arduino'
p780
sS'f_cpu'
p781
S'8000000L'
p782
sS'vid'
p783
S'0x1B4F'
p784
sS'pid'
p785
S'0x9208'
p786
sS'variant'
p787
S'leonardo'
p788
sS'mcu'
p789
S'atmega32u4'
p790
ssS'name'
p791
S'LilyPad Arduino USB'
p792
sS'upload'
p793
(dp794
S'speed'
p795
S'57600'
p796
sS'maximum_size'
p797
S'28672'
p798
sS'protocol'
p799
S'avr109'
p800
sS'disable_flushing'
p801
S'true'
p802
ssaa(lp803
S'lilypad328'
p804
a(dp805
S'bootloader'
p806
(dp807
S'extended_fuses'
p808
S'0x05'
p809
sS'high_fuses'
p810
S'0xDA'
p811
sS'low_fuses'
p812
S'0xFF'
p813
sS'lock_bits'
p814
S'0x0F'
p815
sS'file'
p816
S'ATmegaBOOT_168_atmega328_pro_8MHz.hex'
p817
sS'path'
p818
S'atmega'
p819
sS'unlock_bits'
p820
S'0x3F'
p821
ssS'build'
p822
(dp823
S'core'
p824
S'arduino'
p825
sS'mcu'
p826
S'atmega328p'
p827
sS'f_cpu'
p828
S'8000000L'
p829
sS'variant'
p830
S'standard'
p831
ssS'name'
p832
S'LilyPad Arduino w/ ATmega328'
p833
sS'upload'
p834
(dp835
S'speed'
p836
S'57600'
p837
sS'maximum_size'
p838
S'30720'
p839
sS'protocol'
p840
S'arduino'
p841
ssaa(lp842
S'lilypad'
p843
a(dp844
S'bootloader'
p845
(dp846
S'extended_fuses'
p847
S'0x00'
p848
sS'high_fuses'
p849
S'0xdd'
p850
sS'low_fuses'
p851
S'0xe2'
p852
sS'lock_bits'
p853
S'0x0F'
p854
sS'file'
p855
S'LilyPadBOOT_168.hex'
p856
sS'path'
p857
S'lilypad'
p858
sS'unlock_bits'
p859
S'0x3F'
p860
ssS'build'
p861
(dp862
S'core'
p863
S'arduino'
p864
sS'mcu'
p865
S'atmega168'
p866
sS'f_cpu'
p867
S'8000000L'
p868
sS'variant'
p869
S'standard'
p870
ssS'name'
p871
S'LilyPad Arduino w/ ATmega168'
p872
sS'upload'
p873
(dp874
S'speed'
p875
S'19200'
p876
sS'maximum_size'
p877
S'14336'
p878
sS'protocol'
p879
S'arduino'
p880
ssaa(lp881
S'pro5v328'
p882
a(dp883
S'bootloader'
p884
(dp885
S'extended_fuses'
p886
S'0x05'
p887
sS'high_fuses'
p888
S'0xDA'
p889
sS'low_fuses'
p890
S'0xFF'
p891
sS'lock_bits'
p892
S'0x0F'
p893
sS'file'
p894
S'ATmegaBOOT_168_atmega328.hex'
p895
sS'path'
p896
S'atmega'
p897
sS'unlock_bits'
p898
S'0x3F'
p899
ssS'build'
p900
(dp901
S'core'
p902
S'arduino'
p903
sS'mcu'
p904
S'atmega328p'
p905
sS'f_cpu'
p906
S'16000000L'
p907
sS'variant'
p908
S'standard'
p909
ssS'name'
p910
S'Arduino Pro or Pro Mini (5V, 16 MHz) w/ ATmega328'
p911
sS'upload'
p912
(dp913
S'speed'
p914
S'57600'
p915
sS'maximum_size'
p916
S'30720'
p917
sS'protocol'
p918
S'arduino'
p919
ssaa(lp920
S'pro5v'
p921
a(dp922
S'bootloader'
p923
(dp924
S'extended_fuses'
p925
S'0x00'
p926
sS'high_fuses'
p927
S'0xdd'
p928
sS'low_fuses'
p929
S'0xff'
p930
sS'lock_bits'
p931
S'0x0F'
p932
sS'file'
p933
S'ATmegaBOOT_168_diecimila.hex'
p934
sS'path'
p935
S'atmega'
p936
sS'unlock_bits'
p937
S'0x3F'
p938
ssS'build'
p939
(dp940
S'core'
p941
S'arduino'
p942
sS'mcu'
p943
S'atmega168'
p944
sS'f_cpu'
p945
S'16000000L'
p946
sS'variant'
p947
S'standard'
p948
ssS'name'
p949
S'Arduino Pro or Pro Mini (5V, 16 MHz) w/ ATmega168'
p950
sS'upload'
p951
(dp952
S'speed'
p953
S'19200'
p954
sS'maximum_size'
p955
S'14336'
p956
sS'protocol'
p957
S'arduino'
p958
ssaa(lp959
S'pro328'
p960
a(dp961
S'bootloader'
p962
(dp963
S'extended_fuses'
p964
S'0x05'
p965
sS'high_fuses'
p966
S'0xDA'
p967
sS'low_fuses'
p968
S'0xFF'
p969
sS'lock_bits'
p970
S'0x0F'
p971
sS'file'
p972
S'ATmegaBOOT_168_atmega328_pro_8MHz.hex'
p973
sS'path'
p974
S'atmega'
p975
sS'unlock_bits'
p976
S'0x3F'
p977
ssS'build'
p978
(dp979
S'core'
p980
S'arduino'
p981
sS'mcu'
p982
S'atmega328p'
p983
sS'f_cpu'
p984
S'8000000L'
p985
sS'variant'
p986
S'standard'
p987
ssS'name'
p988
S'Arduino Pro or Pro Mini (3.3V, 8 MHz) w/ ATmega328'
p989
sS'upload'
p990
(dp991
S'speed'
p992
S'57600'
p993
sS'maximum_size'
p994
S'30720'
p995
sS'protocol'
p996
S'arduino'
p997
ssaa(lp998
S'pro'
p999
a(dp1000
S'bootloader'
p1001
(dp1002
S'extended_fuses'
p1003
S'0x00'
p1004
sS'high_fuses'
p1005
S'0xdd'
p1006
sS'low_fuses'
p1007
S'0xc6'
p1008
sS'lock_bits'
p1009
S'0x0F'
p1010
sS'file'
p1011
S'ATmegaBOOT_168_pro_8MHz.hex'
p1012
sS'path'
p1013
S'atmega'
p1014
sS'unlock_bits'
p1015
S'0x3F'
p1016
ssS'build'
p1017
(dp1018
S'core'
p1019
S'arduino'
p1020
sS'mcu'
p1021
S'atmega168'
p1022
sS'f_cpu'
p1023
S'8000000L'
p1024
sS'variant'
p1025
S'standard'
p1026
ssS'name'
p1027
S'Arduino Pro or Pro Mini (3.3V, 8 MHz) w/ ATmega168'
p1028
sS'upload'
p1029
(dp1030
S'speed'
p1031
S'19200'
p1032
sS'maximum_size'
p1033
S'14336'
p1034
sS'protocol'
p1035
S'arduino'
p1036
ssaa(lp1037
S'atmega168'
p1038
a(dp1039
S'bootloader'
p1040
(dp1041
S'extended_fuses'
p1042
S'0x00'
p1043
sS'high_fuses'
p1044
S'0xdd'
p1045
sS'low_fuses'
p1046
S'0xff'
p1047
sS'lock_bits'
p1048
S'0x0F'
p1049
sS'file'
p1050
S'ATmegaBOOT_168_ng.hex'
p1051
sS'path'
p1052
S'atmega'
p1053
sS'unlock_bits'
p1054
S'0x3F'
p1055
ssS'build'
p1056
(dp1057
S'core'
p1058
S'arduino'
p1059
sS'mcu'
p1060
S'atmega168'
p1061
sS'f_cpu'
p1062
S'16000000L'
p1063
sS'variant'
p1064
S'standard'
p1065
ssS'name'
p1066
S'Arduino NG or older w/ ATmega168'
p1067
sS'upload'
p1068
(dp1069
S'speed'
p1070
S'19200'
p1071
sS'maximum_size'
p1072
S'14336'
p1073
sS'protocol'
p1074
S'arduino'
p1075
ssaa(lp1076
S'atmega8'
p1077
a(dp1078
S'bootloader'
p1079
(dp1080
S'high_fuses'
p1081
S'0xca'
p1082
sS'low_fuses'
p1083
S'0xdf'
p1084
sS'lock_bits'
p1085
S'0x0F'
p1086
sS'file'
p1087
S'ATmegaBOOT-prod-firmware-2009-11-07.hex'
p1088
sS'path'
p1089
S'atmega8'
p1090
sS'unlock_bits'
p1091
S'0x3F'
p1092
ssS'build'
p1093
(dp1094
S'core'
p1095
S'arduino'
p1096
sS'mcu'
p1097
S'atmega8'
p1098
sS'f_cpu'
p1099
S'16000000L'
p1100
sS'variant'
p1101
S'standard'
p1102
ssS'name'
p1103
S'Arduino NG or older w/ ATmega8'
p1104
sS'upload'
p1105
(dp1106
S'speed'
p1107
S'19200'
p1108
sS'maximum_size'
p1109
S'7168'
p1110
sS'protocol'
p1111
S'arduino'
p1112
ssaatp1113
Rp1114
(dp1115
S'default'
p1116
S'uno'
p1117
sbtp1118
a(S'cxx'
p1119
S'/Applications/Arduino.app/Contents/Resources/Java/hardware/tools/avr/bin/avr-g++'
p1120
tp1121
a(S'build_dir'
p1122
S'.build/uno'
p1123
tp1124
a.